target datalayout = "e-m:e-p270:32:32-p271:32:32-p272:64:64-i64:64-i128:128-f80:128-n8:16:32:64-S128"
target triple = "x86_64-pc-linux-gnu"

%struct.Abc_Obj_t_ = type { ptr, ptr, i32, i32, %struct.Vec_Int_t_, %struct.Vec_Int_t_, %union.anon, %union.anon.0 }
%struct.Vec_Int_t_ = type { i32, i32, ptr }
%union.anon = type { ptr }
%union.anon.0 = type { ptr }
%struct.Vec_Ptr_t_ = type { i32, i32, ptr }

; Function Attrs: inlinehint nounwind uwtable
define internal void @Vec_PtrClear(ptr noundef %0) #3 {
  %2 = alloca ptr, align 8
  store ptr %0, ptr %2, align 8, !tbaa !20
  %3 = load ptr, ptr %2, align 8, !tbaa !20
  %4 = getelementptr inbounds nuw %struct.Vec_Ptr_t_, ptr %3, i32 0, i32 1
  store i32 0, ptr %4, align 4, !tbaa !74
  ret void
}

; Function Attrs: inlinehint nounwind uwtable
define internal ptr @Vec_PtrEntry(ptr noundef %0, i32 noundef %1) #3 {
  %3 = alloca ptr, align 8
  %4 = alloca i32, align 4
  store ptr %0, ptr %3, align 8, !tbaa !20
  store i32 %1, ptr %4, align 4, !tbaa !8
  %5 = load ptr, ptr %3, align 8, !tbaa !20
  %6 = getelementptr inbounds nuw %struct.Vec_Ptr_t_, ptr %5, i32 0, i32 2
  %7 = load ptr, ptr %6, align 8, !tbaa !93
  %8 = load i32, ptr %4, align 4, !tbaa !8
  %9 = sext i32 %8 to i64
  %10 = getelementptr inbounds ptr, ptr %7, i64 %9
  %11 = load ptr, ptr %10, align 8, !tbaa !95
  ret ptr %11
}

; Function Attrs: inlinehint nounwind uwtable
define internal i32 @Vec_PtrSize(ptr noundef %0) #3 {
  %2 = alloca ptr, align 8
  store ptr %0, ptr %2, align 8, !tbaa !20
  %3 = load ptr, ptr %2, align 8, !tbaa !20
  %4 = getelementptr inbounds nuw %struct.Vec_Ptr_t_, ptr %3, i32 0, i32 1
  %5 = load i32, ptr %4, align 4, !tbaa !74
  ret i32 %5
}

; Function Attrs: nounwind uwtable
define void @Abc_NodeSuperChoiceCollect2(ptr noundef %0, ptr noundef %1, ptr noundef %2) #0 {
  %4 = alloca ptr, align 8
  %5 = alloca ptr, align 8
  %6 = alloca ptr, align 8
  %7 = alloca ptr, align 8
  %8 = alloca i32, align 4
  store ptr %0, ptr %4, align 8, !tbaa !10
  store ptr %1, ptr %5, align 8, !tbaa !20
  store ptr %2, ptr %6, align 8, !tbaa !20
  call void @llvm.lifetime.start.p0(i64 8, ptr %7) #9
  call void @llvm.lifetime.start.p0(i64 4, ptr %8) #9
  store i32 0, ptr %8, align 4, !tbaa !8
  br label %9

9:                                                ; preds = %26, %3
  %10 = load i32, ptr %8, align 4, !tbaa !8
  %11 = load ptr, ptr %5, align 8, !tbaa !20
  %12 = call i32 @Vec_PtrSize(ptr noundef %11)
  %13 = icmp slt i32 %10, %12
  br i1 %13, label %14, label %18

14:                                               ; preds = %9
  %15 = load ptr, ptr %5, align 8, !tbaa !20
  %16 = load i32, ptr %8, align 4, !tbaa !8
  %17 = call ptr @Vec_PtrEntry(ptr noundef %15, i32 noundef %16)
  store ptr %17, ptr %7, align 8, !tbaa !10
  br label %18

18:                                               ; preds = %14, %9
  %19 = phi i1 [ false, %9 ], [ true, %14 ]
  br i1 %19, label %20, label %29

20:                                               ; preds = %18
  %21 = load ptr, ptr %7, align 8, !tbaa !10
  %22 = getelementptr inbounds nuw %struct.Abc_Obj_t_, ptr %21, i32 0, i32 3
  %23 = load i32, ptr %22, align 4
  %24 = and i32 %23, -65
  %25 = or i32 %24, 64
  store i32 %25, ptr %22, align 4
  br label %26

26:                                               ; preds = %20
  %27 = load i32, ptr %8, align 4, !tbaa !8
  %28 = add nsw i32 %27, 1
  store i32 %28, ptr %8, align 4, !tbaa !8
  br label %9, !llvm.loop !103

29:                                               ; preds = %18
  %30 = load ptr, ptr %6, align 8, !tbaa !20
  call void @Vec_PtrClear(ptr noundef %30)
  %31 = load ptr, ptr %4, align 8, !tbaa !10
  %32 = load ptr, ptr %6, align 8, !tbaa !20
  call void @Abc_NodeSuperChoiceCollect2_rec(ptr noundef %31, ptr noundef %32)
  store i32 0, ptr %8, align 4, !tbaa !8
  br label %33

33:                                               ; preds = %50, %29
  %34 = load i32, ptr %8, align 4, !tbaa !8
  %35 = load ptr, ptr %5, align 8, !tbaa !20
  %36 = call i32 @Vec_PtrSize(ptr noundef %35)
  %37 = icmp slt i32 %34, %36
  br i1 %37, label %38, label %42

38:                                               ; preds = %33
  %39 = load ptr, ptr %5, align 8, !tbaa !20
  %40 = load i32, ptr %8, align 4, !tbaa !8
  %41 = call ptr @Vec_PtrEntry(ptr noundef %39, i32 noundef %40)
  store ptr %41, ptr %7, align 8, !tbaa !10
  br label %42

42:                                               ; preds = %38, %33
  %43 = phi i1 [ false, %33 ], [ true, %38 ]
  br i1 %43, label %44, label %53

44:                                               ; preds = %42
  %45 = load ptr, ptr %7, align 8, !tbaa !10
  %46 = getelementptr inbounds nuw %struct.Abc_Obj_t_, ptr %45, i32 0, i32 3
  %47 = load i32, ptr %46, align 4
  %48 = and i32 %47, -65
  %49 = or i32 %48, 0
  store i32 %49, ptr %46, align 4
  br label %50

50:                                               ; preds = %44
  %51 = load i32, ptr %8, align 4, !tbaa !8
  %52 = add nsw i32 %51, 1
  store i32 %52, ptr %8, align 4, !tbaa !8
  br label %33, !llvm.loop !104

53:                                               ; preds = %42
  store i32 0, ptr %8, align 4, !tbaa !8
  br label %54

54:                                               ; preds = %71, %53
  %55 = load i32, ptr %8, align 4, !tbaa !8
  %56 = load ptr, ptr %6, align 8, !tbaa !20
  %57 = call i32 @Vec_PtrSize(ptr noundef %56)
  %58 = icmp slt i32 %55, %57
  br i1 %58, label %59, label %63

59:                                               ; preds = %54
  %60 = load ptr, ptr %6, align 8, !tbaa !20
  %61 = load i32, ptr %8, align 4, !tbaa !8
  %62 = call ptr @Vec_PtrEntry(ptr noundef %60, i32 noundef %61)
  store ptr %62, ptr %7, align 8, !tbaa !10
  br label %63

63:                                               ; preds = %59, %54
  %64 = phi i1 [ false, %54 ], [ true, %59 ]
  br i1 %64, label %65, label %74

65:                                               ; preds = %63
  %66 = load ptr, ptr %7, align 8, !tbaa !10
  %67 = getelementptr inbounds nuw %struct.Abc_Obj_t_, ptr %66, i32 0, i32 3
  %68 = load i32, ptr %67, align 4
  %69 = and i32 %68, -65
  %70 = or i32 %69, 0
  store i32 %70, ptr %67, align 4
  br label %71

71:                                               ; preds = %65
  %72 = load i32, ptr %8, align 4, !tbaa !8
  %73 = add nsw i32 %72, 1
  store i32 %73, ptr %8, align 4, !tbaa !8
  br label %54, !llvm.loop !105

74:                                               ; preds = %63
  call void @llvm.lifetime.end.p0(i64 4, ptr %8) #9
  call void @llvm.lifetime.end.p0(i64 8, ptr %7) #9
  ret void
}