; Function Attrs: nounwind uwtable
define void @Abc_NodeSuperChoiceCollect2(ptr noundef %0, ptr noundef readonly captures(none) %1, ptr noundef %2) local_unnamed_addr #0 {
  %4 = getelementptr i8, ptr %1, i64 4
  %.val2529 = load i32, ptr %4, align 4, !tbaa !24
  %5 = icmp sgt i32 %.val2529, 0
  br i1 %5, label %.lr.ph, label %.critedge

.lr.ph:                                           ; preds = %3
  %6 = getelementptr i8, ptr %1, i64 8
  br label %7

7:                                                ; preds = %.lr.ph, %7
  %indvars.iv = phi i64 [ 0, %.lr.ph ], [ %indvars.iv.next, %7 ]
  %.val28 = load ptr, ptr %6, align 8, !tbaa !26
  %8 = getelementptr inbounds nuw ptr, ptr %.val28, i64 %indvars.iv
  %9 = load ptr, ptr %8, align 8, !tbaa !27
  %10 = getelementptr inbounds nuw i8, ptr %9, i64 20
  %11 = load i32, ptr %10, align 4
  %12 = or i32 %11, 64
  store i32 %12, ptr %10, align 4
  %indvars.iv.next = add nuw nsw i64 %indvars.iv, 1
  %.val25 = load i32, ptr %4, align 4, !tbaa !24
  %13 = sext i32 %.val25 to i64
  %14 = icmp slt i64 %indvars.iv.next, %13
  br i1 %14, label %7, label %.critedge, !llvm.loop !68

.critedge:                                        ; preds = %7, %3
  %15 = getelementptr inbounds nuw i8, ptr %2, i64 4
  store i32 0, ptr %15, align 4, !tbaa !24
  tail call void @Abc_NodeSuperChoiceCollect2_rec(ptr noundef %0, ptr noundef %2)
  %.val2431 = load i32, ptr %4, align 4, !tbaa !24
  %16 = icmp sgt i32 %.val2431, 0
  br i1 %16, label %.lr.ph33, label %.critedge2.preheader

.lr.ph33:                                         ; preds = %.critedge
  %17 = getelementptr i8, ptr %1, i64 8
  br label %20

.critedge2.preheader:                             ; preds = %20, %.critedge
  %.val34 = load i32, ptr %15, align 4, !tbaa !24
  %18 = icmp sgt i32 %.val34, 0
  br i1 %18, label %.lr.ph36, label %.critedge4

.lr.ph36:                                         ; preds = %.critedge2.preheader
  %19 = getelementptr i8, ptr %2, i64 8
  br label %.critedge2

20:                                               ; preds = %.lr.ph33, %20
  %indvars.iv38 = phi i64 [ 0, %.lr.ph33 ], [ %indvars.iv.next39, %20 ]
  %.val27 = load ptr, ptr %17, align 8, !tbaa !26
  %21 = getelementptr inbounds nuw ptr, ptr %.val27, i64 %indvars.iv38
  %22 = load ptr, ptr %21, align 8, !tbaa !27
  %23 = getelementptr inbounds nuw i8, ptr %22, i64 20
  %24 = load i32, ptr %23, align 4
  %25 = and i32 %24, -65
  store i32 %25, ptr %23, align 4
  %indvars.iv.next39 = add nuw nsw i64 %indvars.iv38, 1
  %.val24 = load i32, ptr %4, align 4, !tbaa !24
  %26 = sext i32 %.val24 to i64
  %27 = icmp slt i64 %indvars.iv.next39, %26
  br i1 %27, label %20, label %.critedge2.preheader, !llvm.loop !69

.critedge2:                                       ; preds = %.lr.ph36, %.critedge2
  %indvars.iv41 = phi i64 [ 0, %.lr.ph36 ], [ %indvars.iv.next42, %.critedge2 ]
  %.val26 = load ptr, ptr %19, align 8, !tbaa !26
  %28 = getelementptr inbounds nuw ptr, ptr %.val26, i64 %indvars.iv41
  %29 = load ptr, ptr %28, align 8, !tbaa !27
  %30 = getelementptr inbounds nuw i8, ptr %29, i64 20
  %31 = load i32, ptr %30, align 4
  %32 = and i32 %31, -65
  store i32 %32, ptr %30, align 4
  %indvars.iv.next42 = add nuw nsw i64 %indvars.iv41, 1
  %.val = load i32, ptr %15, align 4, !tbaa !24
  %33 = sext i32 %.val to i64
  %34 = icmp slt i64 %indvars.iv.next42, %33
  br i1 %34, label %.critedge2, label %.critedge4, !llvm.loop !70

.critedge4:                                       ; preds = %.critedge2, %.critedge2.preheader
  ret void
}